target datalayout = "e-m:e-p270:32:32-p271:32:32-p272:64:64-i64:64-i128:128-f80:128-n8:16:32:64-S128"
target triple = "x86_64-pc-linux-gnu"

%struct.evp_pkey_ctx_st = type { i32, ptr, ptr, ptr, ptr, %union.anon, %struct.anon.4, ptr, ptr, ptr, i32, i32, ptr, ptr, ptr, ptr, ptr, i8, ptr }
%union.anon = type { %struct.anon.0 }
%struct.anon.0 = type { ptr, ptr }
%struct.anon.4 = type { ptr, ptr, i64, i8 }

; Function Attrs: nounwind uwtable
define i32 @evp_pkey_ctx_use_cached_data(ptr noundef %0) #0 {
  %2 = alloca ptr, align 8
  %3 = alloca i32, align 4
  %4 = alloca ptr, align 8
  %5 = alloca ptr, align 8
  %6 = alloca i64, align 8
  store ptr %0, ptr %2, align 8, !tbaa !18
  call void @llvm.lifetime.start.p0(i64 4, ptr %3) #8
  store i32 1, ptr %3, align 4, !tbaa !3
  %7 = load i32, ptr %3, align 4, !tbaa !3
  %8 = icmp ne i32 %7, 0
  br i1 %8, label %9, label %47

9:                                                ; preds = %1
  %10 = load ptr, ptr %2, align 8, !tbaa !18
  %11 = getelementptr inbounds nuw %struct.evp_pkey_ctx_st, ptr %10, i32 0, i32 6
  %12 = getelementptr inbounds nuw %struct.anon.4, ptr %11, i32 0, i32 3
  %13 = load i8, ptr %12, align 8
  %14 = and i8 %13, 1
  %15 = zext i8 %14 to i32
  %16 = icmp ne i32 %15, 0
  br i1 %16, label %17, label %47

17:                                               ; preds = %9
  call void @llvm.lifetime.start.p0(i64 8, ptr %4) #8
  %18 = load ptr, ptr %2, align 8, !tbaa !18
  %19 = getelementptr inbounds nuw %struct.evp_pkey_ctx_st, ptr %18, i32 0, i32 6
  %20 = getelementptr inbounds nuw %struct.anon.4, ptr %19, i32 0, i32 0
  %21 = load ptr, ptr %20, align 8, !tbaa !114
  store ptr %21, ptr %4, align 8, !tbaa !33
  call void @llvm.lifetime.start.p0(i64 8, ptr %5) #8
  %22 = load ptr, ptr %2, align 8, !tbaa !18
  %23 = getelementptr inbounds nuw %struct.evp_pkey_ctx_st, ptr %22, i32 0, i32 6
  %24 = getelementptr inbounds nuw %struct.anon.4, ptr %23, i32 0, i32 1
  %25 = load ptr, ptr %24, align 8, !tbaa !115
  store ptr %25, ptr %5, align 8, !tbaa !12
  call void @llvm.lifetime.start.p0(i64 8, ptr %6) #8
  %26 = load ptr, ptr %2, align 8, !tbaa !18
  %27 = getelementptr inbounds nuw %struct.evp_pkey_ctx_st, ptr %26, i32 0, i32 6
  %28 = getelementptr inbounds nuw %struct.anon.4, ptr %27, i32 0, i32 2
  %29 = load i64, ptr %28, align 8, !tbaa !116
  store i64 %29, ptr %6, align 8, !tbaa !77
  %30 = load ptr, ptr %4, align 8, !tbaa !33
  %31 = icmp ne ptr %30, null
  br i1 %31, label %32, label %37

32:                                               ; preds = %17
  %33 = load ptr, ptr %2, align 8, !tbaa !18
  %34 = load ptr, ptr %4, align 8, !tbaa !33
  %35 = load ptr, ptr %5, align 8, !tbaa !12
  %36 = call i32 @evp_pkey_ctx_ctrl_str_int(ptr noundef %33, ptr noundef %34, ptr noundef %35)
  store i32 %36, ptr %3, align 4, !tbaa !3
  br label %46

37:                                               ; preds = %17
  %38 = load ptr, ptr %2, align 8, !tbaa !18
  %39 = load ptr, ptr %2, align 8, !tbaa !18
  %40 = getelementptr inbounds nuw %struct.evp_pkey_ctx_st, ptr %39, i32 0, i32 0
  %41 = load i32, ptr %40, align 8, !tbaa !20
  %42 = load i64, ptr %6, align 8, !tbaa !77
  %43 = trunc i64 %42 to i32
  %44 = load ptr, ptr %5, align 8, !tbaa !12
  %45 = call i32 @evp_pkey_ctx_ctrl_int(ptr noundef %38, i32 noundef -1, i32 noundef %41, i32 noundef 15, i32 noundef %43, ptr noundef %44)
  store i32 %45, ptr %3, align 4, !tbaa !3
  br label %46

46:                                               ; preds = %37, %32
  call void @llvm.lifetime.end.p0(i64 8, ptr %6) #8
  call void @llvm.lifetime.end.p0(i64 8, ptr %5) #8
  call void @llvm.lifetime.end.p0(i64 8, ptr %4) #8
  br label %47

47:                                               ; preds = %46, %9, %1
  %48 = load i32, ptr %3, align 4, !tbaa !3
  call void @llvm.lifetime.end.p0(i64 4, ptr %3) #8
  ret i32 %48
}