; Function Attrs: nounwind uwtable
define i32 @evp_pkey_ctx_use_cached_data(ptr noundef %0) local_unnamed_addr #0 {
  %2 = getelementptr inbounds nuw i8, ptr %0, i64 80
  %3 = load i8, ptr %2, align 8
  %4 = and i8 %3, 1
  %.not = icmp eq i8 %4, 0
  br i1 %.not, label %18, label %5

5:                                                ; preds = %1
  %6 = getelementptr inbounds nuw i8, ptr %0, i64 56
  %7 = load ptr, ptr %6, align 8, !tbaa !60
  %8 = getelementptr inbounds nuw i8, ptr %0, i64 64
  %9 = load ptr, ptr %8, align 8, !tbaa !59
  %.not14 = icmp eq ptr %7, null
  br i1 %.not14, label %12, label %10

10:                                               ; preds = %5
  %11 = tail call fastcc i32 @evp_pkey_ctx_ctrl_str_int(ptr noundef nonnull %0, ptr noundef nonnull %7, ptr noundef %9)
  br label %18

12:                                               ; preds = %5
  %13 = getelementptr inbounds nuw i8, ptr %0, i64 72
  %14 = load i64, ptr %13, align 8, !tbaa !104
  %15 = load i32, ptr %0, align 8, !tbaa !15
  %16 = trunc i64 %14 to i32
  %17 = tail call fastcc i32 @evp_pkey_ctx_ctrl_int(ptr noundef nonnull %0, i32 noundef -1, i32 noundef %15, i32 noundef 15, i32 noundef %16, ptr noundef %9)
  br label %18

18:                                               ; preds = %10, %12, %1
  %.0 = phi i32 [ 1, %1 ], [ %11, %10 ], [ %17, %12 ]
  ret i32 %.0
}